target datalayout = "e-m:e-p270:32:32-p271:32:32-p272:64:64-i64:64-i128:128-f80:128-n8:16:32:64-S128"
target triple = "x86_64-pc-linux-gnu"

%"class.LIEF::BinaryStream" = type { ptr, i64, i8, i32 }
%"class.tl::expected.115" = type { %"struct.tl::detail::expected_move_assign_base.base.133", [7 x i8] }
%"struct.tl::detail::expected_move_assign_base.base.133" = type { %"struct.tl::detail::expected_copy_assign_base.base.132" }
%"struct.tl::detail::expected_copy_assign_base.base.132" = type { %"struct.tl::detail::expected_move_base.base.131" }
%"struct.tl::detail::expected_move_base.base.131" = type { %"struct.tl::detail::expected_copy_base.base.130" }
%"struct.tl::detail::expected_copy_base.base.130" = type { %"struct.tl::detail::expected_operations_base.base.129" }
%"struct.tl::detail::expected_operations_base.base.129" = type { %"struct.tl::detail::expected_storage_base.base.128" }
%"struct.tl::detail::expected_storage_base.base.128" = type <{ %union.anon.122, i8 }>
%union.anon.122 = type { %"class.std::__cxx11::basic_string.123" }
%"class.std::__cxx11::basic_string.123" = type { %"struct.std::__cxx11::basic_string<char16_t>::_Alloc_hider", i64, %union.anon.127 }
%"struct.std::__cxx11::basic_string<char16_t>::_Alloc_hider" = type { ptr }
%union.anon.127 = type { i64, [8 x i8] }
%"struct.tl::detail::expected_storage_base.121" = type <{ %union.anon.122, i8, [7 x i8] }>

; Function Attrs: mustprogress nounwind uwtable
define linkonce_odr hidden void @_ZNSt15__new_allocatorIDsE10deallocateEPDsm(ptr noundef nonnull align 1 dereferenceable(1) %0, ptr noundef %1, i64 noundef %2) #0 comdat align 2 {
  %4 = alloca ptr, align 8
  %5 = alloca ptr, align 8
  %6 = alloca i64, align 8
  store ptr %0, ptr %4, align 8, !tbaa !225
  store ptr %1, ptr %5, align 8, !tbaa !70
  store i64 %2, ptr %6, align 8, !tbaa !13
  %7 = load ptr, ptr %5, align 8, !tbaa !70
  %8 = load i64, ptr %6, align 8, !tbaa !13
  %9 = mul i64 %8, 2
  call void @_ZdlPvm(ptr noundef %7, i64 noundef %9) #14
  ret void
}

; Function Attrs: mustprogress nounwind uwtable
define linkonce_odr hidden noundef ptr @_ZNSt19__ptr_traits_ptr_toIPKDsS0_Lb0EE10pointer_toERS0_(ptr noundef nonnull align 2 dereferenceable(2) %0) #0 comdat align 2 {
  %2 = alloca ptr, align 8
  store ptr %0, ptr %2, align 8, !tbaa !70
  %3 = load ptr, ptr %2, align 8, !tbaa !70
  ret ptr %3
}

; Function Attrs: mustprogress nounwind uwtable
define linkonce_odr hidden void @_ZNSt16allocator_traitsISaIDsEE10deallocateERS0_PDsm(ptr noundef nonnull align 1 dereferenceable(1) %0, ptr noundef %1, i64 noundef %2) #0 comdat align 2 {
  %4 = alloca ptr, align 8
  %5 = alloca ptr, align 8
  %6 = alloca i64, align 8
  store ptr %0, ptr %4, align 8, !tbaa !102
  store ptr %1, ptr %5, align 8, !tbaa !70
  store i64 %2, ptr %6, align 8, !tbaa !13
  %7 = load ptr, ptr %4, align 8, !tbaa !102
  %8 = load ptr, ptr %5, align 8, !tbaa !70
  %9 = load i64, ptr %6, align 8, !tbaa !13
  call void @_ZNSt15__new_allocatorIDsE10deallocateEPDsm(ptr noundef nonnull align 1 dereferenceable(1) %7, ptr noundef %8, i64 noundef %9)
  ret void
}

; Function Attrs: mustprogress nounwind uwtable
define linkonce_odr hidden noundef nonnull align 1 dereferenceable(1) ptr @_ZNSt7__cxx1112basic_stringIDsSt11char_traitsIDsESaIDsEE16_M_get_allocatorEv(ptr noundef nonnull align 8 dereferenceable(32) %0) #0 comdat align 2 {
  %2 = alloca ptr, align 8
  store ptr %0, ptr %2, align 8, !tbaa !76
  %3 = load ptr, ptr %2, align 8
  %4 = getelementptr inbounds nuw %"class.std::__cxx11::basic_string.123", ptr %3, i32 0, i32 0
  ret ptr %4
}

; Function Attrs: mustprogress nounwind uwtable
define linkonce_odr hidden noundef ptr @_ZNKSt7__cxx1112basic_stringIDsSt11char_traitsIDsESaIDsEE13_M_local_dataEv(ptr noundef nonnull align 8 dereferenceable(32) %0) #0 comdat align 2 {
  %2 = alloca ptr, align 8
  store ptr %0, ptr %2, align 8, !tbaa !76
  %3 = load ptr, ptr %2, align 8
  %4 = getelementptr inbounds nuw %"class.std::__cxx11::basic_string.123", ptr %3, i32 0, i32 2
  %5 = getelementptr inbounds [8 x i16], ptr %4, i64 0, i64 0
  %6 = call noundef ptr @_ZNSt19__ptr_traits_ptr_toIPKDsS0_Lb0EE10pointer_toERS0_(ptr noundef nonnull align 2 dereferenceable(2) %5) #12
  ret ptr %6
}

; Function Attrs: mustprogress nounwind uwtable
define linkonce_odr hidden noundef ptr @_ZNKSt7__cxx1112basic_stringIDsSt11char_traitsIDsESaIDsEE7_M_dataEv(ptr noundef nonnull align 8 dereferenceable(32) %0) #0 comdat align 2 {
  %2 = alloca ptr, align 8
  store ptr %0, ptr %2, align 8, !tbaa !76
  %3 = load ptr, ptr %2, align 8
  %4 = getelementptr inbounds nuw %"class.std::__cxx11::basic_string.123", ptr %3, i32 0, i32 0
  %5 = getelementptr inbounds nuw %"struct.std::__cxx11::basic_string<char16_t>::_Alloc_hider", ptr %4, i32 0, i32 0
  %6 = load ptr, ptr %5, align 8, !tbaa !224
  ret ptr %6
}

; Function Attrs: mustprogress nounwind uwtable
define linkonce_odr hidden void @_ZNSt7__cxx1112basic_stringIDsSt11char_traitsIDsESaIDsEE10_M_destroyEm(ptr noundef nonnull align 8 dereferenceable(32) %0, i64 noundef %1) #0 comdat align 2 {
  %3 = alloca ptr, align 8
  %4 = alloca i64, align 8
  store ptr %0, ptr %3, align 8, !tbaa !76
  store i64 %1, ptr %4, align 8, !tbaa !13
  %5 = load ptr, ptr %3, align 8
  %6 = call noundef nonnull align 1 dereferenceable(1) ptr @_ZNSt7__cxx1112basic_stringIDsSt11char_traitsIDsESaIDsEE16_M_get_allocatorEv(ptr noundef nonnull align 8 dereferenceable(32) %5)
  %7 = call noundef ptr @_ZNKSt7__cxx1112basic_stringIDsSt11char_traitsIDsESaIDsEE7_M_dataEv(ptr noundef nonnull align 8 dereferenceable(32) %5)
  %8 = load i64, ptr %4, align 8, !tbaa !13
  %9 = add i64 %8, 1
  call void @_ZNSt16allocator_traitsISaIDsEE10deallocateERS0_PDsm(ptr noundef nonnull align 1 dereferenceable(1) %6, ptr noundef %7, i64 noundef %9)
  ret void
}

; Function Attrs: mustprogress nounwind uwtable
define linkonce_odr hidden noundef zeroext i1 @_ZNKSt7__cxx1112basic_stringIDsSt11char_traitsIDsESaIDsEE11_M_is_localEv(ptr noundef nonnull align 8 dereferenceable(32) %0) #0 comdat align 2 {
  %2 = alloca i1, align 1
  %3 = alloca ptr, align 8
  store ptr %0, ptr %3, align 8, !tbaa !76
  %4 = load ptr, ptr %3, align 8
  %5 = call noundef ptr @_ZNKSt7__cxx1112basic_stringIDsSt11char_traitsIDsESaIDsEE7_M_dataEv(ptr noundef nonnull align 8 dereferenceable(32) %4)
  %6 = call noundef ptr @_ZNKSt7__cxx1112basic_stringIDsSt11char_traitsIDsESaIDsEE13_M_local_dataEv(ptr noundef nonnull align 8 dereferenceable(32) %4)
  %7 = icmp eq ptr %5, %6
  br i1 %7, label %8, label %14

8:                                                ; preds = %1
  %9 = getelementptr inbounds nuw %"class.std::__cxx11::basic_string.123", ptr %4, i32 0, i32 1
  %10 = load i64, ptr %9, align 8, !tbaa !78
  %11 = icmp ugt i64 %10, 7
  br i1 %11, label %12, label %13

12:                                               ; preds = %8
  unreachable

13:                                               ; preds = %8
  store i1 true, ptr %2, align 1
  br label %15

14:                                               ; preds = %1
  store i1 false, ptr %2, align 1
  br label %15

15:                                               ; preds = %14, %13
  %16 = load i1, ptr %2, align 1
  ret i1 %16
}

; Function Attrs: mustprogress nounwind uwtable
define linkonce_odr hidden void @_ZNSt15__new_allocatorIDsED2Ev(ptr noundef nonnull align 1 dereferenceable(1) %0) unnamed_addr #0 comdat align 2 {
  %2 = alloca ptr, align 8
  store ptr %0, ptr %2, align 8, !tbaa !225
  ret void
}

; Function Attrs: mustprogress nounwind uwtable
define linkonce_odr hidden void @_ZNSt7__cxx1112basic_stringIDsSt11char_traitsIDsESaIDsEE10_M_disposeEv(ptr noundef nonnull align 8 dereferenceable(32) %0) #0 comdat align 2 {
  %2 = alloca ptr, align 8
  store ptr %0, ptr %2, align 8, !tbaa !76
  %3 = load ptr, ptr %2, align 8
  %4 = call noundef zeroext i1 @_ZNKSt7__cxx1112basic_stringIDsSt11char_traitsIDsESaIDsEE11_M_is_localEv(ptr noundef nonnull align 8 dereferenceable(32) %3)
  br i1 %4, label %8, label %5

5:                                                ; preds = %1
  %6 = getelementptr inbounds nuw %"class.std::__cxx11::basic_string.123", ptr %3, i32 0, i32 2
  %7 = load i64, ptr %6, align 8, !tbaa !8
  call void @_ZNSt7__cxx1112basic_stringIDsSt11char_traitsIDsESaIDsEE10_M_destroyEm(ptr noundef nonnull align 8 dereferenceable(32) %3, i64 noundef %7) #12
  br label %8

8:                                                ; preds = %5, %1
  ret void
}

; Function Attrs: mustprogress nounwind uwtable
define linkonce_odr hidden void @_ZNSt7__cxx1112basic_stringIDsSt11char_traitsIDsESaIDsEED2Ev(ptr noundef nonnull align 8 dereferenceable(32) %0) unnamed_addr #0 comdat align 2 {
  %2 = alloca ptr, align 8
  store ptr %0, ptr %2, align 8, !tbaa !76
  %3 = load ptr, ptr %2, align 8
  call void @_ZNSt7__cxx1112basic_stringIDsSt11char_traitsIDsESaIDsEE10_M_disposeEv(ptr noundef nonnull align 8 dereferenceable(32) %3)
  %4 = getelementptr inbounds nuw %"class.std::__cxx11::basic_string.123", ptr %3, i32 0, i32 0
  call void @_ZNSt15__new_allocatorIDsED2Ev(ptr noundef nonnull align 8 dereferenceable(8) %4) #12
  ret void
}

; Function Attrs: mustprogress nounwind uwtable
define linkonce_odr hidden void @_ZN2tl6detail21expected_storage_baseINSt7__cxx1112basic_stringIDsSt11char_traitsIDsESaIDsEEE11lief_errorsLb0ELb1EED2Ev(ptr noundef nonnull align 8 dereferenceable(33) %0) unnamed_addr #0 comdat align 2 {
  %2 = alloca ptr, align 8
  store ptr %0, ptr %2, align 8, !tbaa !81
  %3 = load ptr, ptr %2, align 8
  %4 = getelementptr inbounds nuw %"struct.tl::detail::expected_storage_base.121", ptr %3, i32 0, i32 1
  %5 = load i8, ptr %4, align 8, !tbaa !74, !range !33, !noundef !34
  %6 = trunc i8 %5 to i1
  br i1 %6, label %7, label %9

7:                                                ; preds = %1
  %8 = getelementptr inbounds nuw %"struct.tl::detail::expected_storage_base.121", ptr %3, i32 0, i32 0
  call void @_ZNSt7__cxx1112basic_stringIDsSt11char_traitsIDsESaIDsEED2Ev(ptr noundef nonnull align 8 dereferenceable(32) %8) #12
  br label %9

9:                                                ; preds = %7, %1
  ret void
}

; Function Attrs: mustprogress nounwind uwtable
define linkonce_odr hidden noundef nonnull align 8 dereferenceable(24) ptr @_ZNK4LIEF12BinaryStream13increment_posEm(ptr noundef nonnull align 8 dereferenceable(24) %0, i64 noundef %1) #0 comdat align 2 {
  %3 = alloca ptr, align 8
  %4 = alloca i64, align 8
  store ptr %0, ptr %3, align 8, !tbaa !3
  store i64 %1, ptr %4, align 8, !tbaa !13
  %5 = load ptr, ptr %3, align 8
  %6 = load i64, ptr %4, align 8, !tbaa !13
  %7 = getelementptr inbounds nuw %"class.LIEF::BinaryStream", ptr %5, i32 0, i32 1
  %8 = load i64, ptr %7, align 8, !tbaa !50
  %9 = add i64 %8, %6
  store i64 %9, ptr %7, align 8, !tbaa !50
  ret ptr %5
}

; Function Attrs: mustprogress nounwind uwtable
define void @_ZNK4LIEF12BinaryStream14read_u16stringB5cxx11Em(ptr dead_on_unwind noalias writable sret(%"class.tl::expected.115") align 8 %0, ptr noundef nonnull align 8 dereferenceable(24) %1, i64 noundef %2) #0 align 2 {
  %4 = alloca ptr, align 8
  %5 = alloca ptr, align 8
  %6 = alloca i64, align 8
  %7 = alloca i1, align 1
  store ptr %0, ptr %4, align 8
  store ptr %1, ptr %5, align 8, !tbaa !3
  store i64 %2, ptr %6, align 8, !tbaa !13
  %8 = load ptr, ptr %5, align 8
  store i1 false, ptr %7, align 1
  %9 = load i64, ptr %6, align 8, !tbaa !13
  call void @_ZNK4LIEF12BinaryStream14peek_u16stringB5cxx11Em(ptr dead_on_unwind writable sret(%"class.tl::expected.115") align 8 %0, ptr noundef nonnull align 8 dereferenceable(24) %8, i64 noundef %9)
  %10 = load i64, ptr %6, align 8, !tbaa !13
  %11 = mul i64 %10, 2
  %12 = call noundef nonnull align 8 dereferenceable(24) ptr @_ZNK4LIEF12BinaryStream13increment_posEm(ptr noundef nonnull align 8 dereferenceable(24) %8, i64 noundef %11)
  store i1 true, ptr %7, align 1
  %13 = load i1, ptr %7, align 1
  br i1 %13, label %15, label %14

14:                                               ; preds = %3
  call void @_ZN2tl6detail21expected_storage_baseINSt7__cxx1112basic_stringIDsSt11char_traitsIDsESaIDsEEE11lief_errorsLb0ELb1EED2Ev(ptr noundef nonnull align 8 dereferenceable(33) %0) #12
  br label %15

15:                                               ; preds = %14, %3
  ret void
}