; Function Attrs: mustprogress nounwind uwtable
define void @_ZNK4LIEF12BinaryStream14read_u16stringB5cxx11Em(ptr dead_on_unwind noalias writable sret(%"class.tl::expected.115") align 8 %0, ptr noundef nonnull align 8 dereferenceable(24) %1, i64 noundef %2) local_unnamed_addr #0 align 2 {
  tail call void @_ZNK4LIEF12BinaryStream14peek_u16stringB5cxx11Em(ptr dead_on_unwind writable sret(%"class.tl::expected.115") align 8 %0, ptr noundef nonnull align 8 dereferenceable(24) %1, i64 noundef %2)
  %4 = shl i64 %2, 1
  %5 = getelementptr inbounds nuw i8, ptr %1, i64 8
  %6 = load i64, ptr %5, align 8, !tbaa !3
  %7 = add i64 %6, %4
  store i64 %7, ptr %5, align 8, !tbaa !3
  ret void
}